target datalayout = "e-m:e-p270:32:32-p271:32:32-p272:64:64-i64:64-i128:128-f80:128-n8:16:32:64-S128"
target triple = "x86_64-unknown-linux-gnu"

; Function Attrs: mustprogress uwtable
define hidden noundef zeroext i1 @_Z8isclosedi(i32 noundef %fd) #4 {
entry:
  %fd.addr = alloca i32, align 4
  %buffer = alloca i8, align 1
  %result = alloca i64, align 8
  store i32 %fd, ptr %fd.addr, align 4
  store i64 0, ptr %result, align 8
  %0 = load i32, ptr %fd.addr, align 4
  %call = call i64 @read(i32 noundef %0, ptr noundef %buffer, i64 noundef 1)
  store i64 %call, ptr %result, align 8
  %1 = load i64, ptr %result, align 8
  %cmp = icmp eq i64 %1, -1
  br i1 %cmp, label %land.rhs, label %land.end

land.rhs:                                         ; preds = %entry
  %call1 = call ptr @__errno_location() #19
  %2 = load i32, ptr %call1, align 4
  %cmp2 = icmp eq i32 %2, 9
  br label %land.end

land.end:                                         ; preds = %land.rhs, %entry
  %3 = phi i1 [ false, %entry ], [ %cmp2, %land.rhs ]
  ret i1 %3
}