; Function Attrs: mustprogress nofree uwtable
define hidden noundef zeroext i1 @_Z8isclosedi(i32 noundef %fd) local_unnamed_addr #3 {
entry:
  %buffer = alloca i8, align 1
  %call = call i64 @read(i32 noundef %fd, ptr noundef nonnull %buffer, i64 noundef 1)
  %cmp = icmp eq i64 %call, -1
  br i1 %cmp, label %land.rhs, label %land.end

land.rhs:                                         ; preds = %entry
  %call1 = tail call ptr @__errno_location() #23
  %0 = load i32, ptr %call1, align 4
  %cmp2 = icmp eq i32 %0, 9
  br label %land.end

land.end:                                         ; preds = %land.rhs, %entry
  %1 = phi i1 [ false, %entry ], [ %cmp2, %land.rhs ]
  ret i1 %1
}